target datalayout = "e-m:e-p270:32:32-p271:32:32-p272:64:64-i64:64-i128:128-f80:128-n8:16:32:64-S128"
target triple = "x86_64-pc-linux-gnu"

%struct.GVJ_s = type { ptr, ptr, ptr, ptr, ptr, ptr, i32, ptr, ptr, ptr, ptr, i64, i64, ptr, i32, %struct.gvplugin_active_render_s, %struct.gvplugin_active_device_s, %struct.gvplugin_active_loadimage_t, ptr, %struct.pointf_s, i8, ptr, i32, ptr, i8, ptr, i32, i32, i32, %struct.point, %struct.point, %struct.point, %struct.point, %struct.point, i32, %struct.boxf, %struct.pointf_s, %struct.boxf, %struct.boxf, %struct.pointf_s, %struct.pointf_s, double, i32, %struct.pointf_s, %struct.boxf, %struct.pointf_s, %struct.pointf_s, i32, i32, %struct.box, %struct.box, %struct.pointf_s, %struct.pointf_s, %struct.pointf_s, i8, i8, i8, i8, i8, i8, %struct.pointf_s, %struct.pointf_s, ptr, ptr, ptr, ptr, ptr, ptr, i64, ptr }
%struct.gvplugin_active_render_s = type { ptr, i32, ptr, ptr }
%struct.gvplugin_active_device_s = type { ptr, i32, ptr, ptr }
%struct.gvplugin_active_loadimage_t = type { ptr, i32, ptr }
%struct.point = type { i32, i32 }
%struct.boxf = type { %struct.pointf_s, %struct.pointf_s }
%struct.box = type { %struct.point, %struct.point }
%struct.pointf_s = type { double, double }
%struct.GVC_s = type { %struct.GVCOMMON_s, ptr, i8, ptr, i32, ptr, ptr, [5 x ptr], [5 x ptr], ptr, ptr, %struct.dtdisc_s_, ptr, %struct.gvplugin_active_textlayout_s, ptr, ptr, ptr, %struct.gvplugin_active_layout_s, ptr, ptr, ptr, %struct.pointf_s, %struct.pointf_s, %struct.pointf_s, %struct.point, %struct.boxf, i32, i8, i8, i8, ptr, ptr, ptr, ptr, i32, ptr, ptr, double, ptr, %struct.color_s, i32 }
%struct.GVCOMMON_s = type { ptr, ptr, i32, i8, i8, ptr, ptr, ptr, i32, ptr, i32 }
%struct.dtdisc_s_ = type { i32, i32, i32, ptr, ptr, ptr }
%struct.gvplugin_active_textlayout_s = type { ptr, i32, ptr }
%struct.gvplugin_active_layout_s = type { ptr, i32, ptr, ptr }
%struct.color_s = type { %union.anon, i32 }
%union.anon = type { [4 x double] }
%struct.gvplugin_available_s = type { ptr, ptr, i32, ptr, ptr }
%struct.gvplugin_installed_t = type { i32, ptr, i32, ptr, ptr }
%struct.gvdevice_features_t = type { i32, %struct.pointf_s, %struct.pointf_s, %struct.pointf_s }
%struct.gvrender_features_t = type { i32, double, ptr, i32, i32 }

; Function Attrs: nounwind uwtable
define i32 @gvrender_select(ptr noundef %0, ptr noundef %1) #0 {
  %3 = alloca i32, align 4
  %4 = alloca ptr, align 8
  %5 = alloca ptr, align 8
  %6 = alloca ptr, align 8
  %7 = alloca ptr, align 8
  %8 = alloca ptr, align 8
  %9 = alloca i32, align 4
  store ptr %0, ptr %4, align 8, !tbaa !3
  store ptr %1, ptr %5, align 8, !tbaa !8
  call void @llvm.lifetime.start.p0(i64 8, ptr %6) #15
  %10 = load ptr, ptr %4, align 8, !tbaa !3
  %11 = getelementptr inbounds nuw %struct.GVJ_s, ptr %10, i32 0, i32 0
  %12 = load ptr, ptr %11, align 8, !tbaa !10
  store ptr %12, ptr %6, align 8, !tbaa !32
  call void @llvm.lifetime.start.p0(i64 8, ptr %7) #15
  call void @llvm.lifetime.start.p0(i64 8, ptr %8) #15
  %13 = load ptr, ptr %6, align 8, !tbaa !32
  %14 = load ptr, ptr %5, align 8, !tbaa !8
  %15 = call ptr @gvplugin_load(ptr noundef %13, i32 noundef 3, ptr noundef %14, ptr noundef null)
  %16 = load ptr, ptr %6, align 8, !tbaa !32
  %17 = getelementptr inbounds nuw %struct.GVC_s, ptr %16, i32 0, i32 8
  %18 = getelementptr inbounds [5 x ptr], ptr %17, i64 0, i64 3
  %19 = load ptr, ptr %18, align 8, !tbaa !33
  store ptr %19, ptr %7, align 8, !tbaa !33
  %20 = load ptr, ptr %7, align 8, !tbaa !33
  %21 = icmp ne ptr %20, null
  br i1 %21, label %22, label %60

22:                                               ; preds = %2
  %23 = load ptr, ptr %7, align 8, !tbaa !33
  %24 = getelementptr inbounds nuw %struct.gvplugin_available_s, ptr %23, i32 0, i32 4
  %25 = load ptr, ptr %24, align 8, !tbaa !35
  store ptr %25, ptr %8, align 8, !tbaa !38
  %26 = load ptr, ptr %8, align 8, !tbaa !38
  %27 = getelementptr inbounds nuw %struct.gvplugin_installed_t, ptr %26, i32 0, i32 3
  %28 = load ptr, ptr %27, align 8, !tbaa !39
  %29 = load ptr, ptr %4, align 8, !tbaa !3
  %30 = getelementptr inbounds nuw %struct.GVJ_s, ptr %29, i32 0, i32 16
  %31 = getelementptr inbounds nuw %struct.gvplugin_active_device_s, ptr %30, i32 0, i32 0
  store ptr %28, ptr %31, align 8, !tbaa !41
  %32 = load ptr, ptr %8, align 8, !tbaa !38
  %33 = getelementptr inbounds nuw %struct.gvplugin_installed_t, ptr %32, i32 0, i32 4
  %34 = load ptr, ptr %33, align 8, !tbaa !42
  %35 = load ptr, ptr %4, align 8, !tbaa !3
  %36 = getelementptr inbounds nuw %struct.GVJ_s, ptr %35, i32 0, i32 16
  %37 = getelementptr inbounds nuw %struct.gvplugin_active_device_s, ptr %36, i32 0, i32 2
  store ptr %34, ptr %37, align 8, !tbaa !43
  %38 = load ptr, ptr %8, align 8, !tbaa !38
  %39 = getelementptr inbounds nuw %struct.gvplugin_installed_t, ptr %38, i32 0, i32 0
  %40 = load i32, ptr %39, align 8, !tbaa !44
  %41 = load ptr, ptr %4, align 8, !tbaa !3
  %42 = getelementptr inbounds nuw %struct.GVJ_s, ptr %41, i32 0, i32 16
  %43 = getelementptr inbounds nuw %struct.gvplugin_active_device_s, ptr %42, i32 0, i32 1
  store i32 %40, ptr %43, align 8, !tbaa !45
  %44 = load ptr, ptr %7, align 8, !tbaa !33
  %45 = getelementptr inbounds nuw %struct.gvplugin_available_s, ptr %44, i32 0, i32 1
  %46 = load ptr, ptr %45, align 8, !tbaa !46
  %47 = load ptr, ptr %4, align 8, !tbaa !3
  %48 = getelementptr inbounds nuw %struct.GVJ_s, ptr %47, i32 0, i32 16
  %49 = getelementptr inbounds nuw %struct.gvplugin_active_device_s, ptr %48, i32 0, i32 3
  store ptr %46, ptr %49, align 8, !tbaa !47
  %50 = load ptr, ptr %4, align 8, !tbaa !3
  %51 = getelementptr inbounds nuw %struct.GVJ_s, ptr %50, i32 0, i32 16
  %52 = getelementptr inbounds nuw %struct.gvplugin_active_device_s, ptr %51, i32 0, i32 2
  %53 = load ptr, ptr %52, align 8, !tbaa !43
  %54 = getelementptr inbounds nuw %struct.gvdevice_features_t, ptr %53, i32 0, i32 0
  %55 = load i32, ptr %54, align 8, !tbaa !48
  %56 = load ptr, ptr %4, align 8, !tbaa !3
  %57 = getelementptr inbounds nuw %struct.GVJ_s, ptr %56, i32 0, i32 26
  %58 = load i32, ptr %57, align 8, !tbaa !50
  %59 = or i32 %58, %55
  store i32 %59, ptr %57, align 8, !tbaa !50
  br label %61

60:                                               ; preds = %2
  store i32 999, ptr %3, align 4
  store i32 1, ptr %9, align 4
  br label %125

61:                                               ; preds = %22
  %62 = load ptr, ptr %6, align 8, !tbaa !32
  %63 = getelementptr inbounds nuw %struct.GVC_s, ptr %62, i32 0, i32 8
  %64 = getelementptr inbounds [5 x ptr], ptr %63, i64 0, i64 0
  %65 = load ptr, ptr %64, align 8, !tbaa !33
  store ptr %65, ptr %7, align 8, !tbaa !33
  %66 = load ptr, ptr %7, align 8, !tbaa !33
  %67 = icmp ne ptr %66, null
  br i1 %67, label %68, label %121

68:                                               ; preds = %61
  %69 = load ptr, ptr %7, align 8, !tbaa !33
  %70 = getelementptr inbounds nuw %struct.gvplugin_available_s, ptr %69, i32 0, i32 4
  %71 = load ptr, ptr %70, align 8, !tbaa !35
  store ptr %71, ptr %8, align 8, !tbaa !38
  %72 = load ptr, ptr %8, align 8, !tbaa !38
  %73 = getelementptr inbounds nuw %struct.gvplugin_installed_t, ptr %72, i32 0, i32 3
  %74 = load ptr, ptr %73, align 8, !tbaa !39
  %75 = load ptr, ptr %4, align 8, !tbaa !3
  %76 = getelementptr inbounds nuw %struct.GVJ_s, ptr %75, i32 0, i32 15
  %77 = getelementptr inbounds nuw %struct.gvplugin_active_render_s, ptr %76, i32 0, i32 0
  store ptr %74, ptr %77, align 8, !tbaa !51
  %78 = load ptr, ptr %8, align 8, !tbaa !38
  %79 = getelementptr inbounds nuw %struct.gvplugin_installed_t, ptr %78, i32 0, i32 4
  %80 = load ptr, ptr %79, align 8, !tbaa !42
  %81 = load ptr, ptr %4, align 8, !tbaa !3
  %82 = getelementptr inbounds nuw %struct.GVJ_s, ptr %81, i32 0, i32 15
  %83 = getelementptr inbounds nuw %struct.gvplugin_active_render_s, ptr %82, i32 0, i32 2
  store ptr %80, ptr %83, align 8, !tbaa !52
  %84 = load ptr, ptr %7, align 8, !tbaa !33
  %85 = getelementptr inbounds nuw %struct.gvplugin_available_s, ptr %84, i32 0, i32 1
  %86 = load ptr, ptr %85, align 8, !tbaa !46
  %87 = load ptr, ptr %4, align 8, !tbaa !3
  %88 = getelementptr inbounds nuw %struct.GVJ_s, ptr %87, i32 0, i32 15
  %89 = getelementptr inbounds nuw %struct.gvplugin_active_render_s, ptr %88, i32 0, i32 3
  store ptr %86, ptr %89, align 8, !tbaa !53
  %90 = load ptr, ptr %4, align 8, !tbaa !3
  %91 = getelementptr inbounds nuw %struct.GVJ_s, ptr %90, i32 0, i32 15
  %92 = getelementptr inbounds nuw %struct.gvplugin_active_render_s, ptr %91, i32 0, i32 2
  %93 = load ptr, ptr %92, align 8, !tbaa !52
  %94 = getelementptr inbounds nuw %struct.gvrender_features_t, ptr %93, i32 0, i32 0
  %95 = load i32, ptr %94, align 8, !tbaa !54
  %96 = load ptr, ptr %4, align 8, !tbaa !3
  %97 = getelementptr inbounds nuw %struct.GVJ_s, ptr %96, i32 0, i32 26
  %98 = load i32, ptr %97, align 8, !tbaa !50
  %99 = or i32 %98, %95
  store i32 %99, ptr %97, align 8, !tbaa !50
  %100 = load ptr, ptr %4, align 8, !tbaa !3
  %101 = getelementptr inbounds nuw %struct.GVJ_s, ptr %100, i32 0, i32 16
  %102 = getelementptr inbounds nuw %struct.gvplugin_active_device_s, ptr %101, i32 0, i32 0
  %103 = load ptr, ptr %102, align 8, !tbaa !41
  %104 = icmp ne ptr %103, null
  br i1 %104, label %105, label %112

105:                                              ; preds = %68
  %106 = load ptr, ptr %8, align 8, !tbaa !38
  %107 = getelementptr inbounds nuw %struct.gvplugin_installed_t, ptr %106, i32 0, i32 0
  %108 = load i32, ptr %107, align 8, !tbaa !44
  %109 = load ptr, ptr %4, align 8, !tbaa !3
  %110 = getelementptr inbounds nuw %struct.GVJ_s, ptr %109, i32 0, i32 15
  %111 = getelementptr inbounds nuw %struct.gvplugin_active_render_s, ptr %110, i32 0, i32 1
  store i32 %108, ptr %111, align 8, !tbaa !57
  br label %120

112:                                              ; preds = %68
  %113 = load ptr, ptr %4, align 8, !tbaa !3
  %114 = getelementptr inbounds nuw %struct.GVJ_s, ptr %113, i32 0, i32 16
  %115 = getelementptr inbounds nuw %struct.gvplugin_active_device_s, ptr %114, i32 0, i32 1
  %116 = load i32, ptr %115, align 8, !tbaa !45
  %117 = load ptr, ptr %4, align 8, !tbaa !3
  %118 = getelementptr inbounds nuw %struct.GVJ_s, ptr %117, i32 0, i32 15
  %119 = getelementptr inbounds nuw %struct.gvplugin_active_render_s, ptr %118, i32 0, i32 1
  store i32 %116, ptr %119, align 8, !tbaa !57
  br label %120

120:                                              ; preds = %112, %105
  store i32 300, ptr %3, align 4
  store i32 1, ptr %9, align 4
  br label %125

121:                                              ; preds = %61
  %122 = load ptr, ptr %4, align 8, !tbaa !3
  %123 = getelementptr inbounds nuw %struct.GVJ_s, ptr %122, i32 0, i32 15
  %124 = getelementptr inbounds nuw %struct.gvplugin_active_render_s, ptr %123, i32 0, i32 0
  store ptr null, ptr %124, align 8, !tbaa !51
  store i32 999, ptr %3, align 4
  store i32 1, ptr %9, align 4
  br label %125

125:                                              ; preds = %121, %120, %60
  call void @llvm.lifetime.end.p0(i64 8, ptr %8) #15
  call void @llvm.lifetime.end.p0(i64 8, ptr %7) #15
  call void @llvm.lifetime.end.p0(i64 8, ptr %6) #15
  %126 = load i32, ptr %3, align 4
  ret i32 %126
}