; Function Attrs: nounwind uwtable
define range(i32 300, 1000) i32 @gvrender_select(ptr noundef captures(none) %0, ptr noundef %1) local_unnamed_addr #0 {
  %3 = load ptr, ptr %0, align 8, !tbaa !3
  %4 = tail call ptr @gvplugin_load(ptr noundef %3, i32 noundef 3, ptr noundef %1, ptr noundef null) #22
  %5 = getelementptr inbounds nuw i8, ptr %3, i64 184
  %6 = load ptr, ptr %5, align 8, !tbaa !30
  %.not = icmp eq ptr %6, null
  br i1 %.not, label %48, label %7

7:                                                ; preds = %2
  %8 = getelementptr inbounds nuw i8, ptr %3, i64 160
  %9 = getelementptr inbounds nuw i8, ptr %6, i64 32
  %10 = load ptr, ptr %9, align 8, !tbaa !32
  %11 = getelementptr inbounds nuw i8, ptr %10, i64 24
  %12 = load ptr, ptr %11, align 8, !tbaa !35
  %13 = getelementptr inbounds nuw i8, ptr %0, i64 152
  store ptr %12, ptr %13, align 8, !tbaa !37
  %14 = getelementptr inbounds nuw i8, ptr %10, i64 32
  %15 = load ptr, ptr %14, align 8, !tbaa !38
  %16 = getelementptr inbounds nuw i8, ptr %0, i64 168
  store ptr %15, ptr %16, align 8, !tbaa !39
  %17 = load i32, ptr %10, align 8, !tbaa !40
  %18 = getelementptr inbounds nuw i8, ptr %0, i64 160
  store i32 %17, ptr %18, align 8, !tbaa !41
  %19 = getelementptr inbounds nuw i8, ptr %6, i64 8
  %20 = load ptr, ptr %19, align 8, !tbaa !42
  %21 = getelementptr inbounds nuw i8, ptr %0, i64 176
  store ptr %20, ptr %21, align 8, !tbaa !43
  %22 = load i32, ptr %15, align 8, !tbaa !44
  %23 = getelementptr inbounds nuw i8, ptr %0, i64 280
  %24 = load i32, ptr %23, align 8, !tbaa !46
  %25 = or i32 %24, %22
  store i32 %25, ptr %23, align 8, !tbaa !46
  %26 = load ptr, ptr %8, align 8, !tbaa !30
  %.not35 = icmp eq ptr %26, null
  br i1 %.not35, label %46, label %27

27:                                               ; preds = %7
  %28 = getelementptr inbounds nuw i8, ptr %26, i64 32
  %29 = load ptr, ptr %28, align 8, !tbaa !32
  %30 = getelementptr inbounds nuw i8, ptr %29, i64 24
  %31 = load ptr, ptr %30, align 8, !tbaa !35
  %32 = getelementptr inbounds nuw i8, ptr %0, i64 120
  store ptr %31, ptr %32, align 8, !tbaa !47
  %33 = getelementptr inbounds nuw i8, ptr %29, i64 32
  %34 = load ptr, ptr %33, align 8, !tbaa !38
  %35 = getelementptr inbounds nuw i8, ptr %0, i64 136
  store ptr %34, ptr %35, align 8, !tbaa !48
  %36 = getelementptr inbounds nuw i8, ptr %26, i64 8
  %37 = load ptr, ptr %36, align 8, !tbaa !42
  %38 = getelementptr inbounds nuw i8, ptr %0, i64 144
  store ptr %37, ptr %38, align 8, !tbaa !49
  %39 = load i32, ptr %34, align 8, !tbaa !50
  %40 = or i32 %39, %25
  store i32 %40, ptr %23, align 8, !tbaa !46
  %.not36 = icmp eq ptr %12, null
  br i1 %.not36, label %44, label %41

41:                                               ; preds = %27
  %42 = load i32, ptr %29, align 8, !tbaa !40
  %43 = getelementptr inbounds nuw i8, ptr %0, i64 128
  store i32 %42, ptr %43, align 8, !tbaa !53
  br label %48

44:                                               ; preds = %27
  %45 = getelementptr inbounds nuw i8, ptr %0, i64 128
  store i32 %17, ptr %45, align 8, !tbaa !53
  br label %48

46:                                               ; preds = %7
  %47 = getelementptr inbounds nuw i8, ptr %0, i64 120
  store ptr null, ptr %47, align 8, !tbaa !47
  br label %48

48:                                               ; preds = %41, %44, %2, %46
  %.0 = phi i32 [ 999, %46 ], [ 999, %2 ], [ 300, %44 ], [ 300, %41 ]
  ret i32 %.0
}